; Function Attrs: nounwind uwtable
define noundef ptr @Hop_ManDfs(ptr noundef readonly captures(none) %0) local_unnamed_addr #0 {
  %2 = getelementptr i8, ptr %0, i64 88
  %.val = load i32, ptr %2, align 8, !tbaa !16
  %3 = getelementptr i8, ptr %0, i64 92
  %.val16 = load i32, ptr %3, align 4, !tbaa !16
  %4 = add nsw i32 %.val16, %.val
  %5 = tail call noalias dereferenceable_or_null(16) ptr @malloc(i64 noundef 16) #10
  %6 = add i32 %4, -1
  %or.cond.i = icmp ult i32 %6, 7
  %spec.store.select.i = select i1 %or.cond.i, i32 8, i32 %4
  %7 = getelementptr inbounds nuw i8, ptr %5, i64 4
  store i32 0, ptr %7, align 4, !tbaa !11
  store i32 %spec.store.select.i, ptr %5, align 8, !tbaa !13
  %.not.i = icmp eq i32 %spec.store.select.i, 0
  br i1 %.not.i, label %Vec_PtrAlloc.exit, label %8

8:                                                ; preds = %1
  %9 = sext i32 %spec.store.select.i to i64
  %10 = shl nsw i64 %9, 3
  %11 = tail call noalias ptr @malloc(i64 noundef %10) #10
  br label %Vec_PtrAlloc.exit

Vec_PtrAlloc.exit:                                ; preds = %1, %8
  %12 = phi ptr [ %11, %8 ], [ null, %1 ]
  %13 = getelementptr inbounds nuw i8, ptr %5, i64 8
  store ptr %12, ptr %13, align 8, !tbaa !14
  %14 = getelementptr inbounds nuw i8, ptr %0, i64 112
  %15 = load i32, ptr %14, align 8, !tbaa !17
  %16 = icmp sgt i32 %15, 0
  br i1 %16, label %.lr.ph, label %._crit_edge

.lr.ph:                                           ; preds = %Vec_PtrAlloc.exit
  %17 = getelementptr inbounds nuw i8, ptr %0, i64 104
  br label %20

.preheader:                                       ; preds = %27
  %18 = icmp sgt i32 %28, 0
  br i1 %18, label %.lr.ph19, label %._crit_edge

.lr.ph19:                                         ; preds = %.preheader
  %19 = getelementptr inbounds nuw i8, ptr %0, i64 104
  br label %31

20:                                               ; preds = %.lr.ph, %27
  %21 = phi i32 [ %15, %.lr.ph ], [ %28, %27 ]
  %indvars.iv = phi i64 [ 0, %.lr.ph ], [ %indvars.iv.next, %27 ]
  %22 = load ptr, ptr %17, align 8, !tbaa !22
  %23 = getelementptr inbounds nuw ptr, ptr %22, i64 %indvars.iv
  %24 = load ptr, ptr %23, align 8, !tbaa !23
  %25 = icmp eq ptr %24, null
  br i1 %25, label %27, label %26

26:                                               ; preds = %20
  tail call void @Hop_ManDfs_rec(ptr noundef nonnull %24, ptr noundef nonnull %5)
  %.pre = load i32, ptr %14, align 8, !tbaa !17
  br label %27

27:                                               ; preds = %26, %20
  %28 = phi i32 [ %.pre, %26 ], [ %21, %20 ]
  %indvars.iv.next = add nuw nsw i64 %indvars.iv, 1
  %29 = sext i32 %28 to i64
  %30 = icmp slt i64 %indvars.iv.next, %29
  br i1 %30, label %20, label %.preheader, !llvm.loop !24

31:                                               ; preds = %.lr.ph19, %41
  %32 = phi i32 [ %28, %.lr.ph19 ], [ %42, %41 ]
  %indvars.iv21 = phi i64 [ 0, %.lr.ph19 ], [ %indvars.iv.next22, %41 ]
  %33 = load ptr, ptr %19, align 8, !tbaa !22
  %34 = getelementptr inbounds nuw ptr, ptr %33, i64 %indvars.iv21
  %35 = load ptr, ptr %34, align 8, !tbaa !23
  %36 = icmp eq ptr %35, null
  br i1 %36, label %41, label %37

37:                                               ; preds = %31
  %38 = getelementptr inbounds nuw i8, ptr %35, i64 32
  %39 = load i32, ptr %38, align 8
  %40 = and i32 %39, -17
  store i32 %40, ptr %38, align 8
  %.pre24 = load i32, ptr %14, align 8, !tbaa !17
  br label %41

41:                                               ; preds = %37, %31
  %42 = phi i32 [ %.pre24, %37 ], [ %32, %31 ]
  %indvars.iv.next22 = add nuw nsw i64 %indvars.iv21, 1
  %43 = sext i32 %42 to i64
  %44 = icmp slt i64 %indvars.iv.next22, %43
  br i1 %44, label %31, label %._crit_edge, !llvm.loop !26

._crit_edge:                                      ; preds = %41, %Vec_PtrAlloc.exit, %.preheader
  ret ptr %5
}